; Function Attrs: null_pointer_is_valid sspstrong uwtable
define internal noundef zeroext i1 @sharkd_session_seq_analysis_cb(ptr noundef %0, ptr noundef %1, ptr readnone captures(none) %2) #0 {
  tail call void @json_dumper_begin_object(ptr noundef nonnull @dumper)
  %4 = tail call ptr @sequence_analysis_get_ui_name(ptr noundef %1)
  tail call void @json_dumper_set_member_name(ptr noundef nonnull @dumper, ptr noundef nonnull @.str.83)
  tail call void @json_dumper_value_string(ptr noundef nonnull @dumper, ptr noundef %4)
  tail call void (ptr, ptr, ...) @sharkd_json_value_stringf(ptr noundef nonnull @.str.20, ptr noundef nonnull @.str.171, ptr noundef %0)
  tail call void @json_dumper_end_object(ptr noundef nonnull @dumper)
  ret i1 false
}